; Function Attrs: nounwind uwtable
define dso_local void @Curl_http_exp100_got100(ptr noundef %0) local_unnamed_addr #0 {
  %2 = tail call ptr @Curl_creader_get_by_type(ptr noundef %0, ptr noundef nonnull @cr_exp100) #11
  %.not = icmp eq ptr %2, null
  br i1 %.not, label %http_exp100_continue.exit, label %3

3:                                                ; preds = %1
  %4 = getelementptr i8, ptr %2, i64 16
  %.val = load ptr, ptr %4, align 8, !tbaa !185
  %5 = getelementptr inbounds nuw i8, ptr %.val, i64 48
  %6 = load i32, ptr %5, align 8, !tbaa !188
  %.not.i = icmp eq i32 %6, 0
  br i1 %.not.i, label %http_exp100_continue.exit, label %7

7:                                                ; preds = %3
  store i32 0, ptr %5, align 8, !tbaa !188
  %8 = getelementptr inbounds nuw i8, ptr %0, i64 312
  %9 = load i32, ptr %8, align 8, !tbaa !218
  %10 = and i32 %9, -67
  %11 = or disjoint i32 %10, 2
  store i32 %11, ptr %8, align 8, !tbaa !218
  tail call void @Curl_expire_done(ptr noundef %0, i32 noundef 0) #11
  br label %http_exp100_continue.exit

http_exp100_continue.exit:                        ; preds = %7, %3, %1
  ret void
}